; Function Attrs: mustprogress nofree norecurse nosync nounwind willreturn memory(read, inaccessiblemem: none) uwtable
define dso_local noundef zeroext i1 @_ZNK11btMultiBody12hasFixedBaseEv(ptr nocapture noundef nonnull readonly align 8 dereferenceable(640) %this) local_unnamed_addr #6 align 2 {
entry:
  %m_fixedBase = getelementptr inbounds i8, ptr %this, i64 561
  %0 = load i8, ptr %m_fixedBase, align 1
  %1 = and i8 %0, 1
  %tobool.not = icmp eq i8 %1, 0
  br i1 %tobool.not, label %lor.rhs, label %lor.end

lor.rhs:                                          ; preds = %entry
  %m_baseCollider.i = getelementptr inbounds i8, ptr %this, i64 8
  %2 = load ptr, ptr %m_baseCollider.i, align 8
  %tobool2.not = icmp eq ptr %2, null
  br i1 %tobool2.not, label %lor.end, label %land.rhs

land.rhs:                                         ; preds = %lor.rhs
  %m_collisionFlags.i = getelementptr inbounds i8, ptr %2, i64 224
  %3 = load i32, ptr %m_collisionFlags.i, align 8
  %and.i = and i32 %3, 1
  %cmp.i = icmp ne i32 %and.i, 0
  br label %lor.end

lor.end:                                          ; preds = %lor.rhs, %land.rhs, %entry
  %4 = phi i1 [ true, %entry ], [ false, %lor.rhs ], [ %cmp.i, %land.rhs ]
  ret i1 %4
}